target datalayout = "e-m:e-p270:32:32-p271:32:32-p272:64:64-i64:64-i128:128-f80:128-n8:16:32:64-S128"
target triple = "x86_64-pc-linux-gnu"

%union.pthread_mutex_t = type { %struct.__pthread_mutex_s }
%struct.__pthread_mutex_s = type { i32, i32, i32, i32, i32, i16, i16, %struct.__pthread_internal_list }
%struct.__pthread_internal_list = type { ptr, ptr }
%struct.release_t = type { ptr, ptr, i64 }

@alloc_lock = internal global %union.pthread_mutex_t zeroinitializer, align 8
@new_release_info = internal global ptr null, align 8
@release_pos = internal global i32 0, align 4
@release_info = internal global [50 x %struct.release_t] zeroinitializer, align 16

; Function Attrs: inlinehint nounwind uwtable
define internal i32 @my_mbind(ptr noundef %0, i64 noundef %1, i32 noundef %2, ptr noundef %3, i64 noundef %4, i32 noundef %5) #7 {
  %7 = alloca ptr, align 8
  %8 = alloca i64, align 8
  %9 = alloca i32, align 4
  %10 = alloca ptr, align 8
  %11 = alloca i64, align 8
  %12 = alloca i32, align 4
  store ptr %0, ptr %7, align 8, !tbaa !7
  store i64 %1, ptr %8, align 8, !tbaa !9
  store i32 %2, ptr %9, align 4, !tbaa !3
  store ptr %3, ptr %10, align 8, !tbaa !45
  store i64 %4, ptr %11, align 8, !tbaa !9
  store i32 %5, ptr %12, align 4, !tbaa !3
  %13 = load ptr, ptr %7, align 8, !tbaa !7
  %14 = load i64, ptr %8, align 8, !tbaa !9
  %15 = load i32, ptr %9, align 4, !tbaa !3
  %16 = load ptr, ptr %10, align 8, !tbaa !45
  %17 = load i64, ptr %11, align 8, !tbaa !9
  %18 = load i32, ptr %12, align 4, !tbaa !3
  %19 = call i64 (i64, ...) @syscall(i64 noundef 237, ptr noundef %13, i64 noundef %14, i32 noundef %15, ptr noundef %16, i64 noundef %17, i32 noundef %18) #9
  %20 = trunc i64 %19 to i32
  ret i32 %20
}

; Function Attrs: nounwind uwtable
define internal ptr @alloc_mmap(ptr noundef %0) #0 {
  %2 = alloca ptr, align 8
  %3 = alloca ptr, align 8
  store ptr %0, ptr %2, align 8, !tbaa !7
  call void @llvm.lifetime.start.p0(i64 8, ptr %3) #9
  %4 = load ptr, ptr %2, align 8, !tbaa !7
  %5 = icmp ne ptr %4, null
  br i1 %5, label %6, label %9

6:                                                ; preds = %1
  %7 = load ptr, ptr %2, align 8, !tbaa !7
  %8 = call ptr @mmap(ptr noundef %7, i64 noundef 134217728, i32 noundef 3, i32 noundef 50, i32 noundef -1, i64 noundef 0) #9
  store ptr %8, ptr %3, align 8, !tbaa !7
  br label %12

9:                                                ; preds = %1
  %10 = load ptr, ptr %2, align 8, !tbaa !7
  %11 = call ptr @mmap(ptr noundef %10, i64 noundef 134217728, i32 noundef 3, i32 noundef 34, i32 noundef -1, i64 noundef 0) #9
  store ptr %11, ptr %3, align 8, !tbaa !7
  br label %12

12:                                               ; preds = %9, %6
  %13 = load ptr, ptr %3, align 8, !tbaa !7
  %14 = icmp ne ptr %13, inttoptr (i64 -1 to ptr)
  br i1 %14, label %15, label %53

15:                                               ; preds = %12
  %16 = call i32 @pthread_mutex_lock(ptr noundef @alloc_lock) #9
  %17 = load i32, ptr @release_pos, align 4, !tbaa !3
  %18 = icmp slt i32 %17, 50
  %19 = xor i1 %18, true
  %20 = xor i1 %19, true
  %21 = zext i1 %20 to i32
  %22 = sext i32 %21 to i64
  %23 = call i64 @llvm.expect.i64(i64 %22, i64 1)
  %24 = icmp ne i64 %23, 0
  br i1 %24, label %25, label %35

25:                                               ; preds = %15
  %26 = load ptr, ptr %3, align 8, !tbaa !7
  %27 = load i32, ptr @release_pos, align 4, !tbaa !3
  %28 = sext i32 %27 to i64
  %29 = getelementptr inbounds [50 x %struct.release_t], ptr @release_info, i64 0, i64 %28
  %30 = getelementptr inbounds nuw %struct.release_t, ptr %29, i32 0, i32 0
  store ptr %26, ptr %30, align 8, !tbaa !34
  %31 = load i32, ptr @release_pos, align 4, !tbaa !3
  %32 = sext i32 %31 to i64
  %33 = getelementptr inbounds [50 x %struct.release_t], ptr @release_info, i64 0, i64 %32
  %34 = getelementptr inbounds nuw %struct.release_t, ptr %33, i32 0, i32 1
  store ptr @alloc_mmap_free, ptr %34, align 8, !tbaa !36
  br label %49

35:                                               ; preds = %15
  %36 = load ptr, ptr %3, align 8, !tbaa !7
  %37 = load ptr, ptr @new_release_info, align 8, !tbaa !27
  %38 = load i32, ptr @release_pos, align 4, !tbaa !3
  %39 = sub nsw i32 %38, 50
  %40 = sext i32 %39 to i64
  %41 = getelementptr inbounds %struct.release_t, ptr %37, i64 %40
  %42 = getelementptr inbounds nuw %struct.release_t, ptr %41, i32 0, i32 0
  store ptr %36, ptr %42, align 8, !tbaa !34
  %43 = load ptr, ptr @new_release_info, align 8, !tbaa !27
  %44 = load i32, ptr @release_pos, align 4, !tbaa !3
  %45 = sub nsw i32 %44, 50
  %46 = sext i32 %45 to i64
  %47 = getelementptr inbounds %struct.release_t, ptr %43, i64 %46
  %48 = getelementptr inbounds nuw %struct.release_t, ptr %47, i32 0, i32 1
  store ptr @alloc_mmap_free, ptr %48, align 8, !tbaa !36
  br label %49

49:                                               ; preds = %35, %25
  %50 = load i32, ptr @release_pos, align 4, !tbaa !3
  %51 = add nsw i32 %50, 1
  store i32 %51, ptr @release_pos, align 4, !tbaa !3
  %52 = call i32 @pthread_mutex_unlock(ptr noundef @alloc_lock) #9
  br label %54

53:                                               ; preds = %12
  br label %54

54:                                               ; preds = %53, %49
  %55 = load ptr, ptr %3, align 8, !tbaa !7
  %56 = call i32 @my_mbind(ptr noundef %55, i64 noundef 134217728, i32 noundef 1, ptr noundef null, i64 noundef 0, i32 noundef 0)
  %57 = load ptr, ptr %3, align 8, !tbaa !7
  call void @llvm.lifetime.end.p0(i64 8, ptr %3) #9
  ret ptr %57
}