; Function Attrs: nounwind uwtable
define internal ptr @alloc_mmap(ptr noundef %0) #0 {
  %.not = icmp eq ptr %0, null
  br i1 %.not, label %4, label %2

2:                                                ; preds = %1
  %3 = tail call ptr @mmap(ptr noundef nonnull %0, i64 noundef 134217728, i32 noundef 3, i32 noundef 50, i32 noundef -1, i64 noundef 0) #15
  br label %6

4:                                                ; preds = %1
  %5 = tail call ptr @mmap(ptr noundef null, i64 noundef 134217728, i32 noundef 3, i32 noundef 34, i32 noundef -1, i64 noundef 0) #15
  br label %6

6:                                                ; preds = %4, %2
  %.0 = phi ptr [ %3, %2 ], [ %5, %4 ]
  %.not12 = icmp eq ptr %.0, inttoptr (i64 -1 to ptr)
  br i1 %.not12, label %.split8, label %7

7:                                                ; preds = %6
  %8 = tail call i32 @pthread_mutex_lock(ptr noundef nonnull @alloc_lock) #15
  %9 = load i32, ptr @release_pos, align 4, !tbaa !3
  %10 = icmp slt i32 %9, 50
  br i1 %10, label %11, label %15, !prof !31

11:                                               ; preds = %7
  %12 = sext i32 %9 to i64
  %13 = getelementptr inbounds [50 x %struct.release_t], ptr @release_info, i64 0, i64 %12
  store ptr %.0, ptr %13, align 8, !tbaa !32
  %14 = getelementptr inbounds [50 x %struct.release_t], ptr @release_info, i64 0, i64 %12, i32 1
  store ptr @alloc_mmap_free, ptr %14, align 8, !tbaa !34
  br label %.split

15:                                               ; preds = %7
  %16 = load ptr, ptr @new_release_info, align 8, !tbaa !25
  %17 = zext nneg i32 %9 to i64
  %18 = getelementptr %struct.release_t, ptr %16, i64 %17
  %19 = getelementptr i8, ptr %18, i64 -1200
  store ptr %.0, ptr %19, align 8, !tbaa !32
  %20 = getelementptr i8, ptr %18, i64 -1192
  store ptr @alloc_mmap_free, ptr %20, align 8, !tbaa !34
  br label %.split

.split:                                           ; preds = %15, %11
  %21 = add nsw i32 %9, 1
  store i32 %21, ptr @release_pos, align 4, !tbaa !3
  %22 = tail call i32 @pthread_mutex_unlock(ptr noundef nonnull @alloc_lock) #15
  br label %.split8

.split8:                                          ; preds = %6, %.split
  %.sink = phi ptr [ %.0, %.split ], [ inttoptr (i64 -1 to ptr), %6 ]
  %23 = tail call i64 (i64, ...) @syscall(i64 noundef 237, ptr noundef %.sink, i64 noundef 134217728, i32 noundef 1, ptr noundef null, i64 noundef 0, i32 noundef 0) #15
  ret ptr %.0
}